; Function Attrs: mustprogress uwtable
define void @_ZN11BigUnsigned6bitAndERKS_S1_(ptr noundef nonnull align 8 captures(address) dereferenceable(16) %0, ptr noundef nonnull align 8 captures(address) dereferenceable(16) %1, ptr noundef nonnull align 8 captures(address) dereferenceable(16) %2) local_unnamed_addr #0 align 2 personality ptr @__gxx_personality_v0 {
  %4 = alloca %class.BigUnsigned, align 8
  %5 = icmp eq ptr %0, %1
  %6 = icmp eq ptr %0, %2
  %or.cond = or i1 %5, %6
  br i1 %or.cond, label %7, label %44

7:                                                ; preds = %3
  call void @llvm.lifetime.start.p0(i64 16, ptr nonnull %4) #9
  call void @llvm.memset.p0.i64(ptr noundef nonnull align 8 dereferenceable(16) %4, i8 0, i64 16, i1 false)
  invoke void @_ZN11BigUnsigned6bitAndERKS_S1_(ptr noundef nonnull align 8 dereferenceable(16) %4, ptr noundef nonnull align 8 dereferenceable(16) %1, ptr noundef nonnull align 8 dereferenceable(16) %2)
          to label %8 unwind label %38

8:                                                ; preds = %7
  %9 = icmp eq ptr %0, %4
  br i1 %9, label %_ZN11BigUnsignedaSERKS_.exit, label %10

10:                                               ; preds = %8
  %11 = getelementptr inbounds nuw i8, ptr %4, i64 4
  %12 = load i32, ptr %11, align 4, !tbaa !14
  %13 = getelementptr inbounds nuw i8, ptr %0, i64 4
  store i32 %12, ptr %13, align 4, !tbaa !14
  %14 = load i32, ptr %0, align 8, !tbaa !6
  %15 = icmp ugt i32 %12, %14
  br i1 %15, label %16, label %_ZN15NumberlikeArrayImE8allocateEj.exit.i.i

16:                                               ; preds = %10
  %17 = getelementptr inbounds nuw i8, ptr %0, i64 8
  %18 = load ptr, ptr %17, align 8, !tbaa !13
  %19 = icmp eq ptr %18, null
  br i1 %19, label %21, label %20

20:                                               ; preds = %16
  call void @_ZdaPv(ptr noundef nonnull %18) #11
  %.pre.pre.i.i = load i32, ptr %13, align 4, !tbaa !14
  br label %21

21:                                               ; preds = %20, %16
  %.pre.i.i = phi i32 [ %.pre.pre.i.i, %20 ], [ %12, %16 ]
  store i32 %12, ptr %0, align 8, !tbaa !6
  %22 = zext i32 %12 to i64
  %23 = shl nuw nsw i64 %22, 3
  %24 = invoke noalias noundef nonnull ptr @_Znam(i64 noundef %23) #8
          to label %.noexc unwind label %38

.noexc:                                           ; preds = %21
  store ptr %24, ptr %17, align 8, !tbaa !13
  br label %_ZN15NumberlikeArrayImE8allocateEj.exit.i.i

_ZN15NumberlikeArrayImE8allocateEj.exit.i.i:      ; preds = %.noexc, %10
  %25 = phi i32 [ %12, %10 ], [ %.pre.i.i, %.noexc ]
  %.not.i.i = icmp eq i32 %25, 0
  br i1 %.not.i.i, label %_ZN11BigUnsignedaSERKS_.exit, label %.lr.ph.i.i

.lr.ph.i.i:                                       ; preds = %_ZN15NumberlikeArrayImE8allocateEj.exit.i.i
  %26 = getelementptr inbounds nuw i8, ptr %4, i64 8
  %27 = load ptr, ptr %26, align 8, !tbaa !13
  %28 = getelementptr inbounds nuw i8, ptr %0, i64 8
  %29 = load ptr, ptr %28, align 8, !tbaa !13
  %wide.trip.count.i.i = zext i32 %25 to i64
  br label %30

30:                                               ; preds = %30, %.lr.ph.i.i
  %indvars.iv.i.i = phi i64 [ 0, %.lr.ph.i.i ], [ %indvars.iv.next.i.i, %30 ]
  %31 = getelementptr inbounds nuw i64, ptr %27, i64 %indvars.iv.i.i
  %32 = load i64, ptr %31, align 8, !tbaa !15
  %33 = getelementptr inbounds nuw i64, ptr %29, i64 %indvars.iv.i.i
  store i64 %32, ptr %33, align 8, !tbaa !15
  %indvars.iv.next.i.i = add nuw nsw i64 %indvars.iv.i.i, 1
  %exitcond.not.i.i = icmp eq i64 %indvars.iv.next.i.i, %wide.trip.count.i.i
  br i1 %exitcond.not.i.i, label %_ZN11BigUnsignedaSERKS_.exit, label %30, !llvm.loop !23

_ZN11BigUnsignedaSERKS_.exit:                     ; preds = %30, %_ZN15NumberlikeArrayImE8allocateEj.exit.i.i, %8
  %34 = getelementptr inbounds nuw i8, ptr %4, i64 8
  %35 = load ptr, ptr %34, align 8, !tbaa !13
  %36 = icmp eq ptr %35, null
  br i1 %36, label %_ZN15NumberlikeArrayImED2Ev.exit, label %37

37:                                               ; preds = %_ZN11BigUnsignedaSERKS_.exit
  call void @_ZdaPv(ptr noundef nonnull %35) #11
  br label %_ZN15NumberlikeArrayImED2Ev.exit

_ZN15NumberlikeArrayImED2Ev.exit:                 ; preds = %_ZN11BigUnsignedaSERKS_.exit, %37
  call void @llvm.lifetime.end.p0(i64 16, ptr nonnull %4) #9
  br label %_ZN11BigUnsigned15zapLeadingZerosEv.exit

38:                                               ; preds = %21, %7
  %39 = landingpad { ptr, i32 }
          cleanup
  %40 = getelementptr inbounds nuw i8, ptr %4, i64 8
  %41 = load ptr, ptr %40, align 8, !tbaa !13
  %42 = icmp eq ptr %41, null
  br i1 %42, label %_ZN15NumberlikeArrayImED2Ev.exit23, label %43

43:                                               ; preds = %38
  call void @_ZdaPv(ptr noundef nonnull %41) #11
  br label %_ZN15NumberlikeArrayImED2Ev.exit23

_ZN15NumberlikeArrayImED2Ev.exit23:               ; preds = %38, %43
  call void @llvm.lifetime.end.p0(i64 16, ptr nonnull %4) #9
  resume { ptr, i32 } %39

44:                                               ; preds = %3
  %45 = getelementptr inbounds nuw i8, ptr %1, i64 4
  %46 = load i32, ptr %45, align 4, !tbaa !14
  %47 = getelementptr inbounds nuw i8, ptr %2, i64 4
  %48 = load i32, ptr %47, align 4, !tbaa !14
  %. = tail call i32 @llvm.umin.i32(i32 %46, i32 %48)
  %49 = getelementptr inbounds nuw i8, ptr %0, i64 4
  store i32 %., ptr %49, align 4, !tbaa !14
  %50 = load i32, ptr %0, align 8, !tbaa !6
  %51 = icmp ugt i32 %., %50
  br i1 %51, label %52, label %_ZN15NumberlikeArrayImE8allocateEj.exit

52:                                               ; preds = %44
  %53 = getelementptr inbounds nuw i8, ptr %0, i64 8
  %54 = load ptr, ptr %53, align 8, !tbaa !13
  %55 = icmp eq ptr %54, null
  br i1 %55, label %57, label %56

56:                                               ; preds = %52
  tail call void @_ZdaPv(ptr noundef nonnull %54) #11
  %.pre.pre = load i32, ptr %49, align 4, !tbaa !14
  br label %57

57:                                               ; preds = %56, %52
  %.pre = phi i32 [ %.pre.pre, %56 ], [ %., %52 ]
  store i32 %., ptr %0, align 8, !tbaa !6
  %58 = zext i32 %. to i64
  %59 = shl nuw nsw i64 %58, 3
  %60 = tail call noalias noundef nonnull ptr @_Znam(i64 noundef %59) #8
  store ptr %60, ptr %53, align 8, !tbaa !13
  br label %_ZN15NumberlikeArrayImE8allocateEj.exit

_ZN15NumberlikeArrayImE8allocateEj.exit:          ; preds = %44, %57
  %61 = phi i32 [ %., %44 ], [ %.pre, %57 ]
  %.not = icmp eq i32 %61, 0
  br i1 %.not, label %_ZN11BigUnsigned15zapLeadingZerosEv.exit, label %.lr.ph

.lr.ph:                                           ; preds = %_ZN15NumberlikeArrayImE8allocateEj.exit
  %62 = getelementptr inbounds nuw i8, ptr %1, i64 8
  %63 = load ptr, ptr %62, align 8, !tbaa !13
  %64 = getelementptr inbounds nuw i8, ptr %2, i64 8
  %65 = load ptr, ptr %64, align 8, !tbaa !13
  %66 = getelementptr inbounds nuw i8, ptr %0, i64 8
  %67 = load ptr, ptr %66, align 8, !tbaa !13
  %wide.trip.count = zext i32 %61 to i64
  br label %68

68:                                               ; preds = %.lr.ph, %68
  %indvars.iv = phi i64 [ 0, %.lr.ph ], [ %indvars.iv.next, %68 ]
  %69 = getelementptr inbounds nuw i64, ptr %63, i64 %indvars.iv
  %70 = load i64, ptr %69, align 8, !tbaa !15
  %71 = getelementptr inbounds nuw i64, ptr %65, i64 %indvars.iv
  %72 = load i64, ptr %71, align 8, !tbaa !15
  %73 = and i64 %72, %70
  %74 = getelementptr inbounds nuw i64, ptr %67, i64 %indvars.iv
  store i64 %73, ptr %74, align 8, !tbaa !15
  %indvars.iv.next = add nuw nsw i64 %indvars.iv, 1
  %exitcond.not = icmp eq i64 %indvars.iv.next, %wide.trip.count
  br i1 %exitcond.not, label %.lr.ph.i, label %68, !llvm.loop !40

.lr.ph.i:                                         ; preds = %68
  %75 = getelementptr inbounds nuw i8, ptr %0, i64 8
  %76 = load ptr, ptr %75, align 8, !tbaa !13
  %77 = zext i32 %61 to i64
  br label %78

78:                                               ; preds = %83, %.lr.ph.i
  %indvars.iv.i = phi i64 [ %77, %.lr.ph.i ], [ %indvars.iv.next.i, %83 ]
  %indvars.iv.next.i = add nsw i64 %indvars.iv.i, -1
  %79 = and i64 %indvars.iv.next.i, 4294967295
  %80 = getelementptr inbounds nuw i64, ptr %76, i64 %79
  %81 = load i64, ptr %80, align 8, !tbaa !15
  %82 = icmp eq i64 %81, 0
  br i1 %82, label %83, label %_ZN11BigUnsigned15zapLeadingZerosEv.exit

83:                                               ; preds = %78
  %indvars.i = trunc i64 %indvars.iv.next.i to i32
  store i32 %indvars.i, ptr %49, align 4, !tbaa !14
  %.not.i = icmp eq i32 %indvars.i, 0
  br i1 %.not.i, label %_ZN11BigUnsigned15zapLeadingZerosEv.exit, label %78, !llvm.loop !19

_ZN11BigUnsigned15zapLeadingZerosEv.exit:         ; preds = %83, %78, %_ZN15NumberlikeArrayImE8allocateEj.exit, %_ZN15NumberlikeArrayImED2Ev.exit
  ret void
}